target datalayout = "e-m:e-p270:32:32-p271:32:32-p272:64:64-i64:64-i128:128-f80:128-n8:16:32:64-S128"
target triple = "x86_64-pc-linux-gnu"

%struct.UParseError = type { i32, i32, [16 x i16], [16 x i16] }

; Function Attrs: mustprogress uwtable
define void @uprv_syntaxError_77(ptr noundef %0, i32 noundef %1, i32 noundef %2, ptr noundef %3) #0 {
  %5 = alloca ptr, align 8
  %6 = alloca i32, align 4
  %7 = alloca i32, align 4
  %8 = alloca ptr, align 8
  %9 = alloca i32, align 4
  %10 = alloca i32, align 4
  store ptr %0, ptr %5, align 8, !tbaa !30
  store i32 %1, ptr %6, align 4, !tbaa !25
  store i32 %2, ptr %7, align 4, !tbaa !25
  store ptr %3, ptr %8, align 8, !tbaa !32
  %11 = load ptr, ptr %8, align 8, !tbaa !32
  %12 = icmp eq ptr %11, null
  br i1 %12, label %13, label %14

13:                                               ; preds = %4
  br label %79

14:                                               ; preds = %4
  %15 = load i32, ptr %6, align 4, !tbaa !25
  %16 = load ptr, ptr %8, align 8, !tbaa !32
  %17 = getelementptr inbounds nuw %struct.UParseError, ptr %16, i32 0, i32 1
  store i32 %15, ptr %17, align 4, !tbaa !34
  %18 = load ptr, ptr %8, align 8, !tbaa !32
  %19 = getelementptr inbounds nuw %struct.UParseError, ptr %18, i32 0, i32 0
  store i32 0, ptr %19, align 4, !tbaa !36
  call void @llvm.lifetime.start.p0(i64 4, ptr %9) #13
  %20 = load i32, ptr %6, align 4, !tbaa !25
  %21 = icmp slt i32 %20, 16
  br i1 %21, label %22, label %23

22:                                               ; preds = %14
  br label %26

23:                                               ; preds = %14
  %24 = load i32, ptr %6, align 4, !tbaa !25
  %25 = sub nsw i32 %24, 15
  br label %26

26:                                               ; preds = %23, %22
  %27 = phi i32 [ 0, %22 ], [ %25, %23 ]
  store i32 %27, ptr %9, align 4, !tbaa !25
  call void @llvm.lifetime.start.p0(i64 4, ptr %10) #13
  %28 = load i32, ptr %6, align 4, !tbaa !25
  store i32 %28, ptr %10, align 4, !tbaa !25
  %29 = load ptr, ptr %8, align 8, !tbaa !32
  %30 = getelementptr inbounds nuw %struct.UParseError, ptr %29, i32 0, i32 2
  %31 = getelementptr inbounds [16 x i16], ptr %30, i64 0, i64 0
  %32 = load ptr, ptr %5, align 8, !tbaa !30
  %33 = load i32, ptr %9, align 4, !tbaa !25
  %34 = sext i32 %33 to i64
  %35 = getelementptr inbounds i16, ptr %32, i64 %34
  %36 = load i32, ptr %10, align 4, !tbaa !25
  %37 = load i32, ptr %9, align 4, !tbaa !25
  %38 = sub nsw i32 %36, %37
  %39 = call ptr @u_memcpy_77(ptr noundef %31, ptr noundef %35, i32 noundef %38)
  %40 = load ptr, ptr %8, align 8, !tbaa !32
  %41 = getelementptr inbounds nuw %struct.UParseError, ptr %40, i32 0, i32 2
  %42 = load i32, ptr %10, align 4, !tbaa !25
  %43 = load i32, ptr %9, align 4, !tbaa !25
  %44 = sub nsw i32 %42, %43
  %45 = sext i32 %44 to i64
  %46 = getelementptr inbounds [16 x i16], ptr %41, i64 0, i64 %45
  store i16 0, ptr %46, align 2, !tbaa !37
  %47 = load i32, ptr %6, align 4, !tbaa !25
  store i32 %47, ptr %9, align 4, !tbaa !25
  %48 = load i32, ptr %9, align 4, !tbaa !25
  %49 = add nsw i32 %48, 15
  store i32 %49, ptr %10, align 4, !tbaa !25
  %50 = load i32, ptr %10, align 4, !tbaa !25
  %51 = load i32, ptr %7, align 4, !tbaa !25
  %52 = icmp sgt i32 %50, %51
  br i1 %52, label %53, label %55

53:                                               ; preds = %26
  %54 = load i32, ptr %7, align 4, !tbaa !25
  store i32 %54, ptr %10, align 4, !tbaa !25
  br label %55

55:                                               ; preds = %53, %26
  %56 = load i32, ptr %9, align 4, !tbaa !25
  %57 = load i32, ptr %7, align 4, !tbaa !25
  %58 = icmp slt i32 %56, %57
  br i1 %58, label %59, label %71

59:                                               ; preds = %55
  %60 = load ptr, ptr %8, align 8, !tbaa !32
  %61 = getelementptr inbounds nuw %struct.UParseError, ptr %60, i32 0, i32 3
  %62 = getelementptr inbounds [16 x i16], ptr %61, i64 0, i64 0
  %63 = load ptr, ptr %5, align 8, !tbaa !30
  %64 = load i32, ptr %9, align 4, !tbaa !25
  %65 = sext i32 %64 to i64
  %66 = getelementptr inbounds i16, ptr %63, i64 %65
  %67 = load i32, ptr %10, align 4, !tbaa !25
  %68 = load i32, ptr %9, align 4, !tbaa !25
  %69 = sub nsw i32 %67, %68
  %70 = call ptr @u_memcpy_77(ptr noundef %62, ptr noundef %66, i32 noundef %69)
  br label %71

71:                                               ; preds = %59, %55
  %72 = load ptr, ptr %8, align 8, !tbaa !32
  %73 = getelementptr inbounds nuw %struct.UParseError, ptr %72, i32 0, i32 3
  %74 = load i32, ptr %10, align 4, !tbaa !25
  %75 = load i32, ptr %9, align 4, !tbaa !25
  %76 = sub nsw i32 %74, %75
  %77 = sext i32 %76 to i64
  %78 = getelementptr inbounds [16 x i16], ptr %73, i64 0, i64 %77
  store i16 0, ptr %78, align 2, !tbaa !37
  call void @llvm.lifetime.end.p0(i64 4, ptr %10) #13
  call void @llvm.lifetime.end.p0(i64 4, ptr %9) #13
  br label %79

79:                                               ; preds = %71, %13
  ret void
}