; Function Attrs: mustprogress uwtable
define void @uprv_syntaxError_77(ptr noundef %0, i32 noundef %1, i32 noundef %2, ptr noundef %3) local_unnamed_addr #0 {
  %5 = icmp eq ptr %3, null
  br i1 %5, label %29, label %6

6:                                                ; preds = %4
  %7 = getelementptr inbounds nuw i8, ptr %3, i64 4
  store i32 %1, ptr %7, align 4, !tbaa !36
  store i32 0, ptr %3, align 4, !tbaa !38
  %8 = tail call i32 @llvm.smax.i32(i32 %1, i32 15)
  %9 = add nsw i32 %8, -15
  %10 = getelementptr inbounds nuw i8, ptr %3, i64 8
  %11 = zext nneg i32 %9 to i64
  %12 = getelementptr inbounds nuw i16, ptr %0, i64 %11
  %13 = sub nsw i32 %1, %9
  %14 = tail call ptr @u_memcpy_77(ptr noundef nonnull %10, ptr noundef %12, i32 noundef %13)
  %15 = sext i32 %13 to i64
  %16 = getelementptr inbounds [16 x i16], ptr %10, i64 0, i64 %15
  store i16 0, ptr %16, align 2, !tbaa !39
  %17 = add nsw i32 %1, 15
  %spec.select = tail call i32 @llvm.smin.i32(i32 %17, i32 %2)
  %18 = icmp slt i32 %1, %2
  br i1 %18, label %19, label %._crit_edge

._crit_edge:                                      ; preds = %6
  %.pre = sub nsw i32 %spec.select, %1
  br label %25

19:                                               ; preds = %6
  %20 = getelementptr inbounds nuw i8, ptr %3, i64 40
  %21 = sext i32 %1 to i64
  %22 = getelementptr inbounds i16, ptr %0, i64 %21
  %23 = sub nsw i32 %spec.select, %1
  %24 = tail call ptr @u_memcpy_77(ptr noundef nonnull %20, ptr noundef %22, i32 noundef %23)
  br label %25

25:                                               ; preds = %._crit_edge, %19
  %.pre-phi = phi i32 [ %.pre, %._crit_edge ], [ %23, %19 ]
  %26 = getelementptr inbounds nuw i8, ptr %3, i64 40
  %27 = sext i32 %.pre-phi to i64
  %28 = getelementptr inbounds [16 x i16], ptr %26, i64 0, i64 %27
  store i16 0, ptr %28, align 2, !tbaa !39
  br label %29

29:                                               ; preds = %4, %25
  ret void
}